target datalayout = "e-m:e-p270:32:32-p271:32:32-p272:64:64-i64:64-i128:128-f80:128-n8:16:32:64-S128"
target triple = "x86_64-pc-linux-gnu"

%struct.dict = type { ptr, [2 x ptr], [2 x i64], i64, i16, [2 x i8], i16, [0 x ptr] }

@slaveKeysWithExpire = dso_local global ptr null, align 8

; Function Attrs: nounwind uwtable
define dso_local i64 @getSlaveKeyWithExpireCount() #0 {
  %1 = alloca i64, align 8
  %2 = load ptr, ptr @slaveKeysWithExpire, align 8, !tbaa !76
  %3 = icmp eq ptr %2, null
  br i1 %3, label %4, label %5

4:                                                ; preds = %0
  store i64 0, ptr %1, align 8
  br label %15

5:                                                ; preds = %0
  %6 = load ptr, ptr @slaveKeysWithExpire, align 8, !tbaa !76
  %7 = getelementptr inbounds nuw %struct.dict, ptr %6, i32 0, i32 2
  %8 = getelementptr inbounds [2 x i64], ptr %7, i64 0, i64 0
  %9 = load i64, ptr %8, align 8, !tbaa !23
  %10 = load ptr, ptr @slaveKeysWithExpire, align 8, !tbaa !76
  %11 = getelementptr inbounds nuw %struct.dict, ptr %10, i32 0, i32 2
  %12 = getelementptr inbounds [2 x i64], ptr %11, i64 0, i64 1
  %13 = load i64, ptr %12, align 8, !tbaa !23
  %14 = add i64 %9, %13
  store i64 %14, ptr %1, align 8
  br label %15

15:                                               ; preds = %5, %4
  %16 = load i64, ptr %1, align 8
  ret i64 %16
}