; Function Attrs: mustprogress nofree norecurse nosync nounwind willreturn memory(read, inaccessiblemem: none) uwtable
define dso_local i64 @getSlaveKeyWithExpireCount() local_unnamed_addr #6 {
  %1 = load ptr, ptr @slaveKeysWithExpire, align 8, !tbaa !70
  %2 = icmp eq ptr %1, null
  br i1 %2, label %9, label %3

3:                                                ; preds = %0
  %4 = getelementptr inbounds nuw i8, ptr %1, i64 24
  %5 = load i64, ptr %4, align 8, !tbaa !12
  %6 = getelementptr inbounds nuw i8, ptr %1, i64 32
  %7 = load i64, ptr %6, align 8, !tbaa !12
  %8 = add i64 %7, %5
  br label %9

9:                                                ; preds = %0, %3
  %.0 = phi i64 [ %8, %3 ], [ 0, %0 ]
  ret i64 %.0
}